target datalayout = "e-m:e-p270:32:32-p271:32:32-p272:64:64-i64:64-i128:128-f80:128-n8:16:32:64-S128"
target triple = "x86_64-pc-linux-gnu"

; Function Attrs: nounwind uwtable
define void @CRYPTO_cbc128_encrypt(ptr noundef %0, ptr noundef %1, i64 noundef %2, ptr noundef %3, ptr noundef %4, ptr noundef %5) #0 {
  %7 = alloca ptr, align 8
  %8 = alloca ptr, align 8
  %9 = alloca i64, align 8
  %10 = alloca ptr, align 8
  %11 = alloca ptr, align 8
  %12 = alloca ptr, align 8
  %13 = alloca i64, align 8
  %14 = alloca ptr, align 8
  %15 = alloca i32, align 4
  store ptr %0, ptr %7, align 8, !tbaa !3
  store ptr %1, ptr %8, align 8, !tbaa !3
  store i64 %2, ptr %9, align 8, !tbaa !8
  store ptr %3, ptr %10, align 8, !tbaa !10
  store ptr %4, ptr %11, align 8, !tbaa !3
  store ptr %5, ptr %12, align 8, !tbaa !10
  call void @llvm.lifetime.start.p0(i64 8, ptr %13) #3
  call void @llvm.lifetime.start.p0(i64 8, ptr %14) #3
  %16 = load ptr, ptr %11, align 8, !tbaa !3
  store ptr %16, ptr %14, align 8, !tbaa !3
  %17 = load i64, ptr %9, align 8, !tbaa !8
  %18 = icmp eq i64 %17, 0
  br i1 %18, label %19, label %20

19:                                               ; preds = %6
  store i32 1, ptr %15, align 4
  br label %128

20:                                               ; preds = %6
  br label %21

21:                                               ; preds = %44, %20
  %22 = load i64, ptr %9, align 8, !tbaa !8
  %23 = icmp uge i64 %22, 16
  br i1 %23, label %24, label %56

24:                                               ; preds = %21
  store i64 0, ptr %13, align 8, !tbaa !8
  br label %25

25:                                               ; preds = %41, %24
  %26 = load i64, ptr %13, align 8, !tbaa !8
  %27 = icmp ult i64 %26, 16
  br i1 %27, label %28, label %44

28:                                               ; preds = %25
  %29 = load ptr, ptr %7, align 8, !tbaa !3
  %30 = load i64, ptr %13, align 8, !tbaa !8
  %31 = getelementptr inbounds nuw i8, ptr %29, i64 %30
  %32 = load i64, ptr %31, align 1, !tbaa !8
  %33 = load ptr, ptr %14, align 8, !tbaa !3
  %34 = load i64, ptr %13, align 8, !tbaa !8
  %35 = getelementptr inbounds nuw i8, ptr %33, i64 %34
  %36 = load i64, ptr %35, align 1, !tbaa !8
  %37 = xor i64 %32, %36
  %38 = load ptr, ptr %8, align 8, !tbaa !3
  %39 = load i64, ptr %13, align 8, !tbaa !8
  %40 = getelementptr inbounds nuw i8, ptr %38, i64 %39
  store i64 %37, ptr %40, align 1, !tbaa !8
  br label %41

41:                                               ; preds = %28
  %42 = load i64, ptr %13, align 8, !tbaa !8
  %43 = add i64 %42, 8
  store i64 %43, ptr %13, align 8, !tbaa !8
  br label %25, !llvm.loop !11

44:                                               ; preds = %25
  %45 = load ptr, ptr %12, align 8, !tbaa !10
  %46 = load ptr, ptr %8, align 8, !tbaa !3
  %47 = load ptr, ptr %8, align 8, !tbaa !3
  %48 = load ptr, ptr %10, align 8, !tbaa !10
  call void %45(ptr noundef %46, ptr noundef %47, ptr noundef %48)
  %49 = load ptr, ptr %8, align 8, !tbaa !3
  store ptr %49, ptr %14, align 8, !tbaa !3
  %50 = load i64, ptr %9, align 8, !tbaa !8
  %51 = sub i64 %50, 16
  store i64 %51, ptr %9, align 8, !tbaa !8
  %52 = load ptr, ptr %7, align 8, !tbaa !3
  %53 = getelementptr inbounds i8, ptr %52, i64 16
  store ptr %53, ptr %7, align 8, !tbaa !3
  %54 = load ptr, ptr %8, align 8, !tbaa !3
  %55 = getelementptr inbounds i8, ptr %54, i64 16
  store ptr %55, ptr %8, align 8, !tbaa !3
  br label %21, !llvm.loop !13

56:                                               ; preds = %21
  br label %57

57:                                               ; preds = %113, %56
  %58 = load i64, ptr %9, align 8, !tbaa !8
  %59 = icmp ne i64 %58, 0
  br i1 %59, label %60, label %120

60:                                               ; preds = %57
  store i64 0, ptr %13, align 8, !tbaa !8
  br label %61

61:                                               ; preds = %86, %60
  %62 = load i64, ptr %13, align 8, !tbaa !8
  %63 = icmp ult i64 %62, 16
  br i1 %63, label %64, label %68

64:                                               ; preds = %61
  %65 = load i64, ptr %13, align 8, !tbaa !8
  %66 = load i64, ptr %9, align 8, !tbaa !8
  %67 = icmp ult i64 %65, %66
  br label %68

68:                                               ; preds = %64, %61
  %69 = phi i1 [ false, %61 ], [ %67, %64 ]
  br i1 %69, label %70, label %89

70:                                               ; preds = %68
  %71 = load ptr, ptr %7, align 8, !tbaa !3
  %72 = load i64, ptr %13, align 8, !tbaa !8
  %73 = getelementptr inbounds nuw i8, ptr %71, i64 %72
  %74 = load i8, ptr %73, align 1, !tbaa !14
  %75 = zext i8 %74 to i32
  %76 = load ptr, ptr %14, align 8, !tbaa !3
  %77 = load i64, ptr %13, align 8, !tbaa !8
  %78 = getelementptr inbounds nuw i8, ptr %76, i64 %77
  %79 = load i8, ptr %78, align 1, !tbaa !14
  %80 = zext i8 %79 to i32
  %81 = xor i32 %75, %80
  %82 = trunc i32 %81 to i8
  %83 = load ptr, ptr %8, align 8, !tbaa !3
  %84 = load i64, ptr %13, align 8, !tbaa !8
  %85 = getelementptr inbounds nuw i8, ptr %83, i64 %84
  store i8 %82, ptr %85, align 1, !tbaa !14
  br label %86

86:                                               ; preds = %70
  %87 = load i64, ptr %13, align 8, !tbaa !8
  %88 = add i64 %87, 1
  store i64 %88, ptr %13, align 8, !tbaa !8
  br label %61, !llvm.loop !15

89:                                               ; preds = %68
  br label %90

90:                                               ; preds = %101, %89
  %91 = load i64, ptr %13, align 8, !tbaa !8
  %92 = icmp ult i64 %91, 16
  br i1 %92, label %93, label %104

93:                                               ; preds = %90
  %94 = load ptr, ptr %14, align 8, !tbaa !3
  %95 = load i64, ptr %13, align 8, !tbaa !8
  %96 = getelementptr inbounds nuw i8, ptr %94, i64 %95
  %97 = load i8, ptr %96, align 1, !tbaa !14
  %98 = load ptr, ptr %8, align 8, !tbaa !3
  %99 = load i64, ptr %13, align 8, !tbaa !8
  %100 = getelementptr inbounds nuw i8, ptr %98, i64 %99
  store i8 %97, ptr %100, align 1, !tbaa !14
  br label %101

101:                                              ; preds = %93
  %102 = load i64, ptr %13, align 8, !tbaa !8
  %103 = add i64 %102, 1
  store i64 %103, ptr %13, align 8, !tbaa !8
  br label %90, !llvm.loop !16

104:                                              ; preds = %90
  %105 = load ptr, ptr %12, align 8, !tbaa !10
  %106 = load ptr, ptr %8, align 8, !tbaa !3
  %107 = load ptr, ptr %8, align 8, !tbaa !3
  %108 = load ptr, ptr %10, align 8, !tbaa !10
  call void %105(ptr noundef %106, ptr noundef %107, ptr noundef %108)
  %109 = load ptr, ptr %8, align 8, !tbaa !3
  store ptr %109, ptr %14, align 8, !tbaa !3
  %110 = load i64, ptr %9, align 8, !tbaa !8
  %111 = icmp ule i64 %110, 16
  br i1 %111, label %112, label %113

112:                                              ; preds = %104
  br label %120

113:                                              ; preds = %104
  %114 = load i64, ptr %9, align 8, !tbaa !8
  %115 = sub i64 %114, 16
  store i64 %115, ptr %9, align 8, !tbaa !8
  %116 = load ptr, ptr %7, align 8, !tbaa !3
  %117 = getelementptr inbounds i8, ptr %116, i64 16
  store ptr %117, ptr %7, align 8, !tbaa !3
  %118 = load ptr, ptr %8, align 8, !tbaa !3
  %119 = getelementptr inbounds i8, ptr %118, i64 16
  store ptr %119, ptr %8, align 8, !tbaa !3
  br label %57, !llvm.loop !17

120:                                              ; preds = %112, %57
  %121 = load ptr, ptr %11, align 8, !tbaa !3
  %122 = load ptr, ptr %14, align 8, !tbaa !3
  %123 = icmp ne ptr %121, %122
  br i1 %123, label %124, label %127

124:                                              ; preds = %120
  %125 = load ptr, ptr %11, align 8, !tbaa !3
  %126 = load ptr, ptr %14, align 8, !tbaa !3
  call void @llvm.memcpy.p0.p0.i64(ptr align 1 %125, ptr align 1 %126, i64 16, i1 false)
  br label %127

127:                                              ; preds = %124, %120
  store i32 0, ptr %15, align 4
  br label %128

128:                                              ; preds = %127, %19
  call void @llvm.lifetime.end.p0(i64 8, ptr %14) #3
  call void @llvm.lifetime.end.p0(i64 8, ptr %13) #3
  %129 = load i32, ptr %15, align 4
  switch i32 %129, label %131 [
    i32 0, label %130
    i32 1, label %130
  ]

130:                                              ; preds = %128, %128
  ret void

131:                                              ; preds = %128
  unreachable
}