; Function Attrs: nounwind uwtable
define void @CRYPTO_cbc128_encrypt(ptr noundef readonly captures(none) %0, ptr noundef %1, i64 noundef %2, ptr noundef %3, ptr noundef captures(address) %4, ptr noundef readonly captures(none) %5) local_unnamed_addr #0 {
  %7 = icmp eq i64 %2, 0
  br i1 %7, label %36, label %.preheader62

.preheader62:                                     ; preds = %6
  %8 = icmp ugt i64 %2, 15
  br i1 %8, label %.preheader61, label %.preheader60.preheader

.preheader61:                                     ; preds = %.preheader62, %.preheader61
  %.067 = phi ptr [ %.05365, %.preheader61 ], [ %4, %.preheader62 ]
  %.05166 = phi ptr [ %19, %.preheader61 ], [ %0, %.preheader62 ]
  %.05365 = phi ptr [ %20, %.preheader61 ], [ %1, %.preheader62 ]
  %.05564 = phi i64 [ %18, %.preheader61 ], [ %2, %.preheader62 ]
  %9 = load i64, ptr %.05166, align 1, !tbaa !3
  %10 = load i64, ptr %.067, align 1, !tbaa !3
  %11 = xor i64 %10, %9
  store i64 %11, ptr %.05365, align 1, !tbaa !3
  %12 = getelementptr inbounds nuw i8, ptr %.05166, i64 8
  %13 = load i64, ptr %12, align 1, !tbaa !3
  %14 = getelementptr inbounds nuw i8, ptr %.067, i64 8
  %15 = load i64, ptr %14, align 1, !tbaa !3
  %16 = xor i64 %15, %13
  %17 = getelementptr inbounds nuw i8, ptr %.05365, i64 8
  store i64 %16, ptr %17, align 1, !tbaa !3
  tail call void %5(ptr noundef nonnull %.05365, ptr noundef nonnull %.05365, ptr noundef %3) #3
  %18 = add i64 %.05564, -16
  %19 = getelementptr inbounds nuw i8, ptr %.05166, i64 16
  %20 = getelementptr inbounds nuw i8, ptr %.05365, i64 16
  %21 = icmp ugt i64 %18, 15
  br i1 %21, label %.preheader61, label %._crit_edge, !llvm.loop !7

._crit_edge:                                      ; preds = %.preheader61
  %.not = icmp eq i64 %18, 0
  br i1 %.not, label %34, label %.preheader60.preheader

.preheader60.preheader:                           ; preds = %.preheader62, %._crit_edge
  %.0.lcssa87 = phi ptr [ %.05365, %._crit_edge ], [ %4, %.preheader62 ]
  %.051.lcssa86 = phi ptr [ %19, %._crit_edge ], [ %0, %.preheader62 ]
  %.053.lcssa85 = phi ptr [ %20, %._crit_edge ], [ %1, %.preheader62 ]
  %.055.lcssa84 = phi i64 [ %18, %._crit_edge ], [ %2, %.preheader62 ]
  br label %.preheader60

.preheader:                                       ; preds = %.preheader60
  %22 = icmp samesign ult i64 %.14971, 15
  br i1 %22, label %.lr.ph, label %._crit_edge73

.preheader60:                                     ; preds = %.preheader60.preheader, %.preheader60
  %.14971 = phi i64 [ %29, %.preheader60 ], [ 0, %.preheader60.preheader ]
  %23 = getelementptr inbounds nuw i8, ptr %.051.lcssa86, i64 %.14971
  %24 = load i8, ptr %23, align 1, !tbaa !9
  %25 = getelementptr inbounds nuw i8, ptr %.0.lcssa87, i64 %.14971
  %26 = load i8, ptr %25, align 1, !tbaa !9
  %27 = xor i8 %26, %24
  %28 = getelementptr inbounds nuw i8, ptr %.053.lcssa85, i64 %.14971
  store i8 %27, ptr %28, align 1, !tbaa !9
  %29 = add nuw nsw i64 %.14971, 1
  %exitcond.not = icmp eq i64 %29, %.055.lcssa84
  br i1 %exitcond.not, label %.preheader, label %.preheader60, !llvm.loop !10

.lr.ph:                                           ; preds = %.preheader, %.lr.ph
  %.25072 = phi i64 [ %33, %.lr.ph ], [ %.055.lcssa84, %.preheader ]
  %30 = getelementptr inbounds nuw i8, ptr %.0.lcssa87, i64 %.25072
  %31 = load i8, ptr %30, align 1, !tbaa !9
  %32 = getelementptr inbounds nuw i8, ptr %.053.lcssa85, i64 %.25072
  store i8 %31, ptr %32, align 1, !tbaa !9
  %33 = add i64 %.25072, 1
  %exitcond78.not = icmp eq i64 %33, 16
  br i1 %exitcond78.not, label %._crit_edge73, label %.lr.ph, !llvm.loop !11

._crit_edge73:                                    ; preds = %.lr.ph, %.preheader
  tail call void %5(ptr noundef nonnull %.053.lcssa85, ptr noundef nonnull %.053.lcssa85, ptr noundef %3) #3
  br label %34

34:                                               ; preds = %._crit_edge73, %._crit_edge
  %.2 = phi ptr [ %.053.lcssa85, %._crit_edge73 ], [ %.05365, %._crit_edge ]
  %.not59 = icmp eq ptr %4, %.2
  br i1 %.not59, label %36, label %35

35:                                               ; preds = %34
  tail call void @llvm.memcpy.p0.p0.i64(ptr noundef nonnull align 1 dereferenceable(16) %4, ptr noundef nonnull align 1 dereferenceable(16) %.2, i64 16, i1 false)
  br label %36

36:                                               ; preds = %34, %35, %6
  ret void
}